; ModuleID = '31/1664.c'
source_filename = "31/1664.c"
target datalayout = "e-m:e-p270:32:32-p271:32:32-p272:64:64-i64:64-f80:128-n8:16:32:64-S128"
target triple = "x86_64-pc-linux-gnu"

%struct.stdnt = type { [20 x i8], [20 x i8], i8, i32, double, [30 x i8], %struct.stdnt* }

@n = common dso_local global i32 0, align 4
@.str = private unnamed_addr constant [3 x i8] c"%s\00", align 1
@.str.1 = private unnamed_addr constant [4 x i8] c"end\00", align 1
@.str.2 = private unnamed_addr constant [14 x i8] c"%s %c%d%lf %s\00", align 1
@.str.3 = private unnamed_addr constant [19 x i8] c"%s %s %c %d %g %s\0A\00", align 1

; Function Attrs: noinline nounwind uwtable
define dso_local %struct.stdnt* @creat() #0 {
  %1 = alloca %struct.stdnt*, align 8
  %2 = alloca %struct.stdnt*, align 8
  store %struct.stdnt* null, %struct.stdnt** %2, align 8
  %3 = call noalias i8* @malloc(i64 100) #4
  %4 = bitcast i8* %3 to %struct.stdnt*
  store %struct.stdnt* %4, %struct.stdnt** %1, align 8
  store i32 0, i32* @n, align 4
  br label %5

5:                                                ; preds = %43, %0
  %6 = load i32, i32* @n, align 4
  %7 = icmp eq i32 %6, 0
  br i1 %7, label %8, label %11

8:                                                ; preds = %5
  %9 = load %struct.stdnt*, %struct.stdnt** %1, align 8
  %10 = getelementptr inbounds %struct.stdnt, %struct.stdnt* %9, i32 0, i32 6
  store %struct.stdnt* null, %struct.stdnt** %10, align 8
  br label %11

11:                                               ; preds = %8, %5
  %12 = load %struct.stdnt*, %struct.stdnt** %1, align 8
  %13 = getelementptr inbounds %struct.stdnt, %struct.stdnt* %12, i32 0, i32 0
  %14 = getelementptr inbounds [20 x i8], [20 x i8]* %13, i64 0, i64 0
  %15 = call i32 (i8*, ...) @__isoc99_scanf(i8* getelementptr inbounds ([3 x i8], [3 x i8]* @.str, i64 0, i64 0), i8* %14)
  %16 = load %struct.stdnt*, %struct.stdnt** %1, align 8
  %17 = getelementptr inbounds %struct.stdnt, %struct.stdnt* %16, i32 0, i32 0
  %18 = getelementptr inbounds [20 x i8], [20 x i8]* %17, i64 0, i64 0
  %19 = call i32 @strcmp(i8* %18, i8* getelementptr inbounds ([4 x i8], [4 x i8]* @.str.1, i64 0, i64 0)) #5
  %20 = icmp eq i32 %19, 0
  br i1 %20, label %21, label %22

21:                                               ; preds = %11
  br label %46

22:                                               ; preds = %11
  %23 = load %struct.stdnt*, %struct.stdnt** %1, align 8
  store %struct.stdnt* %23, %struct.stdnt** %2, align 8
  br label %24

24:                                               ; preds = %22
  %25 = load %struct.stdnt*, %struct.stdnt** %1, align 8
  %26 = getelementptr inbounds %struct.stdnt, %struct.stdnt* %25, i32 0, i32 1
  %27 = getelementptr inbounds [20 x i8], [20 x i8]* %26, i64 0, i64 0
  %28 = load %struct.stdnt*, %struct.stdnt** %1, align 8
  %29 = getelementptr inbounds %struct.stdnt, %struct.stdnt* %28, i32 0, i32 2
  %30 = load %struct.stdnt*, %struct.stdnt** %1, align 8
  %31 = getelementptr inbounds %struct.stdnt, %struct.stdnt* %30, i32 0, i32 3
  %32 = load %struct.stdnt*, %struct.stdnt** %1, align 8
  %33 = getelementptr inbounds %struct.stdnt, %struct.stdnt* %32, i32 0, i32 4
  %34 = load %struct.stdnt*, %struct.stdnt** %1, align 8
  %35 = getelementptr inbounds %struct.stdnt, %struct.stdnt* %34, i32 0, i32 5
  %36 = getelementptr inbounds [30 x i8], [30 x i8]* %35, i64 0, i64 0
  %37 = call i32 (i8*, ...) @__isoc99_scanf(i8* getelementptr inbounds ([14 x i8], [14 x i8]* @.str.2, i64 0, i64 0), i8* %27, i8* %29, i32* %31, double* %33, i8* %36)
  %38 = call noalias i8* @malloc(i64 100) #4
  %39 = bitcast i8* %38 to %struct.stdnt*
  store %struct.stdnt* %39, %struct.stdnt** %1, align 8
  %40 = load %struct.stdnt*, %struct.stdnt** %2, align 8
  %41 = load %struct.stdnt*, %struct.stdnt** %1, align 8
  %42 = getelementptr inbounds %struct.stdnt, %struct.stdnt* %41, i32 0, i32 6
  store %struct.stdnt* %40, %struct.stdnt** %42, align 8
  br label %43

43:                                               ; preds = %24
  %44 = load i32, i32* @n, align 4
  %45 = add nsw i32 %44, 1
  store i32 %45, i32* @n, align 4
  br label %5

46:                                               ; preds = %21
  %47 = load %struct.stdnt*, %struct.stdnt** %1, align 8
  %48 = getelementptr inbounds %struct.stdnt, %struct.stdnt* %47, i32 0, i32 6
  %49 = load %struct.stdnt*, %struct.stdnt** %48, align 8
  ret %struct.stdnt* %49
}

; Function Attrs: nounwind
declare dso_local noalias i8* @malloc(i64) #1

declare dso_local i32 @__isoc99_scanf(i8*, ...) #2

; Function Attrs: nounwind readonly
declare dso_local i32 @strcmp(i8*, i8*) #3

; Function Attrs: noinline nounwind uwtable
define dso_local void @output(%struct.stdnt* %0) #0 {
  %2 = alloca %struct.stdnt*, align 8
  store %struct.stdnt* %0, %struct.stdnt** %2, align 8
  br label %3

3:                                                ; preds = %6, %1
  %4 = load %struct.stdnt*, %struct.stdnt** %2, align 8
  %5 = icmp ne %struct.stdnt* %4, null
  br i1 %5, label %6, label %30

6:                                                ; preds = %3
  %7 = load %struct.stdnt*, %struct.stdnt** %2, align 8
  %8 = getelementptr inbounds %struct.stdnt, %struct.stdnt* %7, i32 0, i32 0
  %9 = getelementptr inbounds [20 x i8], [20 x i8]* %8, i64 0, i64 0
  %10 = load %struct.stdnt*, %struct.stdnt** %2, align 8
  %11 = getelementptr inbounds %struct.stdnt, %struct.stdnt* %10, i32 0, i32 1
  %12 = getelementptr inbounds [20 x i8], [20 x i8]* %11, i64 0, i64 0
  %13 = load %struct.stdnt*, %struct.stdnt** %2, align 8
  %14 = getelementptr inbounds %struct.stdnt, %struct.stdnt* %13, i32 0, i32 2
  %15 = load i8, i8* %14, align 8
  %16 = sext i8 %15 to i32
  %17 = load %struct.stdnt*, %struct.stdnt** %2, align 8
  %18 = getelementptr inbounds %struct.stdnt, %struct.stdnt* %17, i32 0, i32 3
  %19 = load i32, i32* %18, align 4
  %20 = load %struct.stdnt*, %struct.stdnt** %2, align 8
  %21 = getelementptr inbounds %struct.stdnt, %struct.stdnt* %20, i32 0, i32 4
  %22 = load double, double* %21, align 8
  %23 = load %struct.stdnt*, %struct.stdnt** %2, align 8
  %24 = getelementptr inbounds %struct.stdnt, %struct.stdnt* %23, i32 0, i32 5
  %25 = getelementptr inbounds [30 x i8], [30 x i8]* %24, i64 0, i64 0
  %26 = call i32 (i8*, ...) @printf(i8* getelementptr inbounds ([19 x i8], [19 x i8]* @.str.3, i64 0, i64 0), i8* %9, i8* %12, i32 %16, i32 %19, double %22, i8* %25)
  %27 = load %struct.stdnt*, %struct.stdnt** %2, align 8
  %28 = getelementptr inbounds %struct.stdnt, %struct.stdnt* %27, i32 0, i32 6
  %29 = load %struct.stdnt*, %struct.stdnt** %28, align 8
  store %struct.stdnt* %29, %struct.stdnt** %2, align 8
  br label %3

30:                                               ; preds = %3
  ret void
}

declare dso_local i32 @printf(i8*, ...) #2

; Function Attrs: noinline nounwind uwtable
define dso_local i32 @main() #0 {
  %1 = alloca %struct.stdnt*, align 8
  %2 = call %struct.stdnt* @creat()
  store %struct.stdnt* %2, %struct.stdnt** %1, align 8
  %3 = load %struct.stdnt*, %struct.stdnt** %1, align 8
  call void @output(%struct.stdnt* %3)
  ret i32 0
}


!llvm.module.flags = !{!0}
!llvm.ident = !{!1}

!0 = !{i32 1, !"wchar_size", i32 4}
!1 = !{!"clang version 10.0.0-4ubuntu1 "}
